; Function Attrs: nounwind uwtable
define internal fastcc void @_jumbleImportForeignSchemaStmt(ptr noundef %0, ptr noundef nonnull readonly captures(none) %1) unnamed_addr #0 {
  %3 = getelementptr inbounds nuw i8, ptr %1, i64 8
  %4 = load ptr, ptr %3, align 8
  %.not = icmp eq ptr %4, null
  %.pre55.pre57.pre60 = load ptr, ptr %0, align 8
  br i1 %.not, label %20, label %5

5:                                                ; preds = %2
  %6 = tail call i64 @strlen(ptr noundef nonnull dereferenceable(1) %4) #8
  %7 = add i64 %6, 1
  %8 = getelementptr inbounds nuw i8, ptr %0, i64 8
  %9 = load i64, ptr %8, align 8
  %.not23.i = icmp eq i64 %7, 0
  br i1 %.not23.i, label %AppendJumble.exit, label %.lr.ph.i

.lr.ph.i:                                         ; preds = %5, %13
  %.026.i = phi ptr [ %18, %13 ], [ %4, %5 ]
  %.02125.i = phi i64 [ %19, %13 ], [ %7, %5 ]
  %.02224.i = phi i64 [ %17, %13 ], [ %9, %5 ]
  %10 = icmp ugt i64 %.02224.i, 1023
  br i1 %10, label %11, label %13

11:                                               ; preds = %.lr.ph.i
  %12 = tail call i64 @hash_bytes_extended(ptr noundef %.pre55.pre57.pre60, i32 noundef 1024, i64 noundef 0) #9
  store i64 %12, ptr %.pre55.pre57.pre60, align 1
  br label %13

13:                                               ; preds = %11, %.lr.ph.i
  %.1.i = phi i64 [ 8, %11 ], [ %.02224.i, %.lr.ph.i ]
  %14 = sub nuw nsw i64 1024, %.1.i
  %15 = tail call i64 @llvm.umin.i64(i64 %.02125.i, i64 %14)
  %16 = getelementptr inbounds nuw i8, ptr %.pre55.pre57.pre60, i64 %.1.i
  tail call void @llvm.memcpy.p0.p0.i64(ptr noundef nonnull align 1 dereferenceable(1) %16, ptr noundef nonnull align 1 dereferenceable(1) %.026.i, i64 %15, i1 false)
  %17 = add nuw nsw i64 %15, %.1.i
  %18 = getelementptr inbounds nuw i8, ptr %.026.i, i64 %15
  %19 = sub i64 %.02125.i, %15
  %.not.i = icmp eq i64 %19, 0
  br i1 %.not.i, label %AppendJumble.exit.loopexit, label %.lr.ph.i, !llvm.loop !7

AppendJumble.exit.loopexit:                       ; preds = %13
  %.pre55.pre57.pre.pre = load ptr, ptr %0, align 8
  br label %AppendJumble.exit

AppendJumble.exit:                                ; preds = %AppendJumble.exit.loopexit, %5
  %.pre55.pre57.pre = phi ptr [ %.pre55.pre57.pre60, %5 ], [ %.pre55.pre57.pre.pre, %AppendJumble.exit.loopexit ]
  %.022.lcssa.i = phi i64 [ %9, %5 ], [ %17, %AppendJumble.exit.loopexit ]
  store i64 %.022.lcssa.i, ptr %8, align 8
  br label %20

20:                                               ; preds = %2, %AppendJumble.exit
  %.pre55.pre57 = phi ptr [ %.pre55.pre57.pre60, %2 ], [ %.pre55.pre57.pre, %AppendJumble.exit ]
  %21 = getelementptr inbounds nuw i8, ptr %1, i64 16
  %22 = load ptr, ptr %21, align 8
  %.not21 = icmp eq ptr %22, null
  br i1 %.not21, label %38, label %23

23:                                               ; preds = %20
  %24 = tail call i64 @strlen(ptr noundef nonnull dereferenceable(1) %22) #8
  %25 = add i64 %24, 1
  %26 = getelementptr inbounds nuw i8, ptr %0, i64 8
  %27 = load i64, ptr %26, align 8
  %.not23.i23 = icmp eq i64 %25, 0
  br i1 %.not23.i23, label %AppendJumble.exit31, label %.lr.ph.i24

.lr.ph.i24:                                       ; preds = %23, %31
  %.026.i25 = phi ptr [ %36, %31 ], [ %22, %23 ]
  %.02125.i26 = phi i64 [ %37, %31 ], [ %25, %23 ]
  %.02224.i27 = phi i64 [ %35, %31 ], [ %27, %23 ]
  %28 = icmp ugt i64 %.02224.i27, 1023
  br i1 %28, label %29, label %31

29:                                               ; preds = %.lr.ph.i24
  %30 = tail call i64 @hash_bytes_extended(ptr noundef %.pre55.pre57, i32 noundef 1024, i64 noundef 0) #9
  store i64 %30, ptr %.pre55.pre57, align 1
  br label %31

31:                                               ; preds = %29, %.lr.ph.i24
  %.1.i28 = phi i64 [ 8, %29 ], [ %.02224.i27, %.lr.ph.i24 ]
  %32 = sub nuw nsw i64 1024, %.1.i28
  %33 = tail call i64 @llvm.umin.i64(i64 %.02125.i26, i64 %32)
  %34 = getelementptr inbounds nuw i8, ptr %.pre55.pre57, i64 %.1.i28
  tail call void @llvm.memcpy.p0.p0.i64(ptr noundef nonnull align 1 dereferenceable(1) %34, ptr noundef nonnull align 1 dereferenceable(1) %.026.i25, i64 %33, i1 false)
  %35 = add nuw nsw i64 %33, %.1.i28
  %36 = getelementptr inbounds nuw i8, ptr %.026.i25, i64 %33
  %37 = sub i64 %.02125.i26, %33
  %.not.i29 = icmp eq i64 %37, 0
  br i1 %.not.i29, label %AppendJumble.exit31.loopexit, label %.lr.ph.i24, !llvm.loop !7

AppendJumble.exit31.loopexit:                     ; preds = %31
  %.pre55.pre.pre = load ptr, ptr %0, align 8
  br label %AppendJumble.exit31

AppendJumble.exit31:                              ; preds = %AppendJumble.exit31.loopexit, %23
  %.pre55.pre = phi ptr [ %.pre55.pre57, %23 ], [ %.pre55.pre.pre, %AppendJumble.exit31.loopexit ]
  %.022.lcssa.i30 = phi i64 [ %27, %23 ], [ %35, %AppendJumble.exit31.loopexit ]
  store i64 %.022.lcssa.i30, ptr %26, align 8
  br label %38

38:                                               ; preds = %20, %AppendJumble.exit31
  %.pre55 = phi ptr [ %.pre55.pre57, %20 ], [ %.pre55.pre, %AppendJumble.exit31 ]
  %39 = getelementptr inbounds nuw i8, ptr %1, i64 24
  %40 = load ptr, ptr %39, align 8
  %.not22 = icmp eq ptr %40, null
  br i1 %.not22, label %._crit_edge, label %41

._crit_edge:                                      ; preds = %38
  %.phi.trans.insert = getelementptr inbounds nuw i8, ptr %0, i64 8
  %.pre56 = load i64, ptr %.phi.trans.insert, align 8
  br label %56

41:                                               ; preds = %38
  %42 = tail call i64 @strlen(ptr noundef nonnull dereferenceable(1) %40) #8
  %43 = add i64 %42, 1
  %44 = getelementptr inbounds nuw i8, ptr %0, i64 8
  %45 = load i64, ptr %44, align 8
  %.not23.i32 = icmp eq i64 %43, 0
  br i1 %.not23.i32, label %AppendJumble.exit40, label %.lr.ph.i33

.lr.ph.i33:                                       ; preds = %41, %49
  %.026.i34 = phi ptr [ %54, %49 ], [ %40, %41 ]
  %.02125.i35 = phi i64 [ %55, %49 ], [ %43, %41 ]
  %.02224.i36 = phi i64 [ %53, %49 ], [ %45, %41 ]
  %46 = icmp ugt i64 %.02224.i36, 1023
  br i1 %46, label %47, label %49

47:                                               ; preds = %.lr.ph.i33
  %48 = tail call i64 @hash_bytes_extended(ptr noundef %.pre55, i32 noundef 1024, i64 noundef 0) #9
  store i64 %48, ptr %.pre55, align 1
  br label %49

49:                                               ; preds = %47, %.lr.ph.i33
  %.1.i37 = phi i64 [ 8, %47 ], [ %.02224.i36, %.lr.ph.i33 ]
  %50 = sub nuw nsw i64 1024, %.1.i37
  %51 = tail call i64 @llvm.umin.i64(i64 %.02125.i35, i64 %50)
  %52 = getelementptr inbounds nuw i8, ptr %.pre55, i64 %.1.i37
  tail call void @llvm.memcpy.p0.p0.i64(ptr noundef nonnull align 1 dereferenceable(1) %52, ptr noundef nonnull align 1 dereferenceable(1) %.026.i34, i64 %51, i1 false)
  %53 = add nuw nsw i64 %51, %.1.i37
  %54 = getelementptr inbounds nuw i8, ptr %.026.i34, i64 %51
  %55 = sub i64 %.02125.i35, %51
  %.not.i38 = icmp eq i64 %55, 0
  br i1 %.not.i38, label %AppendJumble.exit40.loopexit, label %.lr.ph.i33, !llvm.loop !7

AppendJumble.exit40.loopexit:                     ; preds = %49
  %.pre.pre = load ptr, ptr %0, align 8
  br label %AppendJumble.exit40

AppendJumble.exit40:                              ; preds = %AppendJumble.exit40.loopexit, %41
  %.pre = phi ptr [ %.pre55, %41 ], [ %.pre.pre, %AppendJumble.exit40.loopexit ]
  %.022.lcssa.i39 = phi i64 [ %45, %41 ], [ %53, %AppendJumble.exit40.loopexit ]
  store i64 %.022.lcssa.i39, ptr %44, align 8
  br label %56

56:                                               ; preds = %._crit_edge, %AppendJumble.exit40
  %57 = phi i64 [ %.022.lcssa.i39, %AppendJumble.exit40 ], [ %.pre56, %._crit_edge ]
  %58 = phi ptr [ %.pre, %AppendJumble.exit40 ], [ %.pre55, %._crit_edge ]
  %59 = getelementptr inbounds nuw i8, ptr %1, i64 32
  br label %.lr.ph.i41

.lr.ph.i41:                                       ; preds = %63, %56
  %.026.i42 = phi ptr [ %68, %63 ], [ %59, %56 ]
  %.02125.i43 = phi i64 [ %69, %63 ], [ 4, %56 ]
  %.02224.i44 = phi i64 [ %67, %63 ], [ %57, %56 ]
  %60 = icmp ugt i64 %.02224.i44, 1023
  br i1 %60, label %61, label %63

61:                                               ; preds = %.lr.ph.i41
  %62 = tail call i64 @hash_bytes_extended(ptr noundef %58, i32 noundef 1024, i64 noundef 0) #9
  store i64 %62, ptr %58, align 1
  br label %63

63:                                               ; preds = %61, %.lr.ph.i41
  %.1.i45 = phi i64 [ 8, %61 ], [ %.02224.i44, %.lr.ph.i41 ]
  %64 = sub nuw nsw i64 1024, %.1.i45
  %65 = tail call i64 @llvm.umin.i64(i64 %.02125.i43, i64 %64)
  %66 = getelementptr inbounds nuw i8, ptr %58, i64 %.1.i45
  tail call void @llvm.memcpy.p0.p0.i64(ptr noundef nonnull align 1 dereferenceable(1) %66, ptr noundef nonnull align 1 dereferenceable(1) %.026.i42, i64 %65, i1 false)
  %67 = add nuw nsw i64 %65, %.1.i45
  %68 = getelementptr inbounds nuw i8, ptr %.026.i42, i64 %65
  %69 = sub i64 %.02125.i43, %65
  %.not.i46 = icmp eq i64 %69, 0
  br i1 %.not.i46, label %AppendJumble.exit48, label %.lr.ph.i41, !llvm.loop !7

AppendJumble.exit48:                              ; preds = %63
  %70 = getelementptr inbounds nuw i8, ptr %0, i64 8
  store i64 %67, ptr %70, align 8
  %71 = getelementptr inbounds nuw i8, ptr %1, i64 40
  %72 = load ptr, ptr %71, align 8
  tail call fastcc void @_jumbleNode(ptr noundef nonnull %0, ptr noundef %72)
  %73 = getelementptr inbounds nuw i8, ptr %1, i64 48
  %74 = load ptr, ptr %73, align 8
  tail call fastcc void @_jumbleNode(ptr noundef nonnull %0, ptr noundef %74)
  ret void
}